target datalayout = "e-m:e-p270:32:32-p271:32:32-p272:64:64-i64:64-i128:128-f80:128-n8:16:32:64-S128"
target triple = "x86_64-pc-linux-gnu"

%struct._zend_phpdbg_globals = type { [11 x %struct._zend_array], %struct._zend_array, %struct._zend_array, ptr, ptr, %struct.phpdbg_frame_t, i32, ptr, %struct.phpdbg_lexer_data, ptr, %struct.sigaction, i32, i64, %struct.phpdbg_btree, %struct.phpdbg_btree, %struct._zend_array, %struct._zend_array, %struct._zend_array, %struct._zend_array, ptr, ptr, i8, ptr, ptr, ptr, i64, ptr, %struct._zval_struct, i32, i32, i8, i8, ptr, ptr, ptr, %struct._zend_array, ptr, ptr, ptr, [3 x %struct.anon.8], ptr, %struct.anon.9, i64, [2 x ptr], [3 x ptr], ptr, i8, ptr, ptr, [500 x i8], i32, %struct.phpdbg_signal_safe_mem, ptr, i64, ptr, i64 }
%struct.phpdbg_frame_t = type { i32, ptr, ptr }
%struct.phpdbg_lexer_data = type { i32, ptr, ptr, ptr, ptr, i32 }
%struct.sigaction = type { %union.anon.7, %struct.__sigset_t, i32, ptr }
%union.anon.7 = type { ptr }
%struct.__sigset_t = type { [16 x i64] }
%struct.phpdbg_btree = type { i64, i64, i8, ptr }
%struct._zval_struct = type { %union._zend_value, %union.anon, %union.anon.2 }
%union._zend_value = type { i64 }
%union.anon = type { i32 }
%union.anon.2 = type { i32 }
%struct._zend_array = type { %struct._zend_refcounted_h, %union.anon.4, i32, %union.anon.6, i32, i32, i32, i32, i64, ptr }
%struct._zend_refcounted_h = type { i32, %union.anon.3 }
%union.anon.3 = type { i32 }
%union.anon.4 = type { i32 }
%union.anon.6 = type { ptr }
%struct.anon.8 = type { i32 }
%struct.anon.9 = type { i8, i32, i32, ptr, i32 }
%struct.phpdbg_signal_safe_mem = type { ptr, i8, ptr, ptr }
%struct.phpdbg_btree_result = type { i64, ptr }
%struct._phpdbg_watchpoint_t = type { %union.anon.27, i64, i32, ptr, %struct._zend_array, ptr, %union.anon.28 }
%union.anon.27 = type { ptr }
%union.anon.28 = type { %struct._zend_array }
%struct.uffdio_writeprotect = type { %struct.uffdio_range, i64 }
%struct.uffdio_range = type { i64, i64 }
%struct._phpdbg_watch_element = type { i32, ptr, i8, ptr, ptr, %struct._zend_array, ptr, ptr, ptr, %union.anon.29 }
%union.anon.29 = type { %struct._zend_array }
%struct.phpdbg_watch_ht_info = type { %struct._phpdbg_watchpoint_t, ptr, %struct._zend_array }
%struct.uffdio_register = type { %struct.uffdio_range, i64, i64 }

@phpdbg_globals = external global %struct._zend_phpdbg_globals, align 8
@phpdbg_pagesize = internal global i64 0, align 8

; Function Attrs: nounwind uwtable
define internal void @phpdbg_change_watchpoint_access(ptr noundef %0, i32 noundef %1) #0 {
  %3 = alloca ptr, align 8
  %4 = alloca ptr, align 8
  %5 = alloca ptr, align 8
  %6 = alloca i64, align 8
  %7 = alloca ptr, align 8
  %8 = alloca ptr, align 8
  %9 = alloca i32, align 4
  %10 = alloca ptr, align 8
  %11 = alloca i64, align 8
  %12 = alloca %struct.uffdio_range, align 8
  %13 = alloca %struct.uffdio_register, align 8
  %14 = alloca %struct.uffdio_writeprotect, align 8
  %15 = alloca %struct.uffdio_register, align 8
  store ptr %0, ptr %8, align 8
  store i32 %1, ptr %9, align 4
  %16 = load ptr, ptr %8, align 8
  %17 = getelementptr inbounds %struct._phpdbg_watchpoint_t, ptr %16, i32 0, i32 0
  %18 = load ptr, ptr %17, align 8
  store ptr %18, ptr %7, align 8
  %19 = load ptr, ptr %7, align 8
  %20 = ptrtoint ptr %19 to i64
  %21 = load i64, ptr @phpdbg_pagesize, align 8
  %22 = sub nsw i64 %21, 1
  %23 = xor i64 %22, -1
  %24 = and i64 %20, %23
  %25 = inttoptr i64 %24 to ptr
  store ptr %25, ptr %10, align 8
  %26 = load ptr, ptr %8, align 8
  %27 = getelementptr inbounds %struct._phpdbg_watchpoint_t, ptr %26, i32 0, i32 0
  %28 = load ptr, ptr %27, align 8
  %29 = load ptr, ptr %8, align 8
  %30 = getelementptr inbounds %struct._phpdbg_watchpoint_t, ptr %29, i32 0, i32 1
  %31 = load i64, ptr %30, align 8
  store ptr %28, ptr %5, align 8
  store i64 %31, ptr %6, align 8
  %32 = load ptr, ptr %5, align 8
  %33 = ptrtoint ptr %32 to i64
  %34 = load i64, ptr %6, align 8
  %35 = add i64 %33, %34
  %36 = sub i64 %35, 1
  %37 = inttoptr i64 %36 to ptr
  store ptr %37, ptr %3, align 8
  %38 = load ptr, ptr %3, align 8
  %39 = ptrtoint ptr %38 to i64
  %40 = load i64, ptr @phpdbg_pagesize, align 8
  %41 = sub nsw i64 %40, 1
  %42 = xor i64 %41, -1
  %43 = and i64 %39, %42
  %44 = load ptr, ptr %5, align 8
  store ptr %44, ptr %4, align 8
  %45 = load ptr, ptr %4, align 8
  %46 = ptrtoint ptr %45 to i64
  %47 = load i64, ptr @phpdbg_pagesize, align 8
  %48 = sub nsw i64 %47, 1
  %49 = xor i64 %48, -1
  %50 = and i64 %46, %49
  %51 = sub i64 %43, %50
  %52 = load i64, ptr @phpdbg_pagesize, align 8
  %53 = add i64 %51, %52
  store i64 %53, ptr %11, align 8
  %54 = load i32, ptr getelementptr inbounds (%struct._zend_phpdbg_globals, ptr @phpdbg_globals, i32 0, i32 11), align 8
  %55 = icmp ne i32 %54, 0
  br i1 %55, label %56, label %81

56:                                               ; preds = %2
  %57 = getelementptr inbounds %struct.uffdio_range, ptr %12, i32 0, i32 0
  %58 = load ptr, ptr %10, align 8
  %59 = ptrtoint ptr %58 to i64
  store i64 %59, ptr %57, align 8
  %60 = getelementptr inbounds %struct.uffdio_range, ptr %12, i32 0, i32 1
  %61 = load i64, ptr %11, align 8
  store i64 %61, ptr %60, align 8
  %62 = load i32, ptr %9, align 4
  %63 = icmp eq i32 %62, 1
  br i1 %63, label %64, label %74

64:                                               ; preds = %56
  %65 = getelementptr inbounds %struct.uffdio_register, ptr %13, i32 0, i32 0
  call void @llvm.memcpy.p0.p0.i64(ptr align 8 %65, ptr align 8 %12, i64 16, i1 false)
  %66 = getelementptr inbounds %struct.uffdio_register, ptr %13, i32 0, i32 1
  store i64 2, ptr %66, align 8
  %67 = getelementptr inbounds %struct.uffdio_register, ptr %13, i32 0, i32 2
  store i64 0, ptr %67, align 8
  %68 = getelementptr inbounds %struct.uffdio_writeprotect, ptr %14, i32 0, i32 0
  call void @llvm.memcpy.p0.p0.i64(ptr align 8 %68, ptr align 8 %12, i64 16, i1 false)
  %69 = getelementptr inbounds %struct.uffdio_writeprotect, ptr %14, i32 0, i32 1
  store i64 1, ptr %69, align 8
  %70 = load i32, ptr getelementptr inbounds (%struct._zend_phpdbg_globals, ptr @phpdbg_globals, i32 0, i32 11), align 8
  %71 = call i32 (i32, i64, ...) @ioctl(i32 noundef %70, i64 noundef 3223366144, ptr noundef %13) #11
  %72 = load i32, ptr getelementptr inbounds (%struct._zend_phpdbg_globals, ptr @phpdbg_globals, i32 0, i32 11), align 8
  %73 = call i32 (i32, i64, ...) @ioctl(i32 noundef %72, i64 noundef 3222841862, ptr noundef %14) #11
  br label %80

74:                                               ; preds = %56
  %75 = getelementptr inbounds %struct.uffdio_register, ptr %15, i32 0, i32 0
  call void @llvm.memcpy.p0.p0.i64(ptr align 8 %75, ptr align 8 %12, i64 16, i1 false)
  %76 = getelementptr inbounds %struct.uffdio_register, ptr %15, i32 0, i32 1
  store i64 2, ptr %76, align 8
  %77 = getelementptr inbounds %struct.uffdio_register, ptr %15, i32 0, i32 2
  store i64 0, ptr %77, align 8
  %78 = load i32, ptr getelementptr inbounds (%struct._zend_phpdbg_globals, ptr @phpdbg_globals, i32 0, i32 11), align 8
  %79 = call i32 (i32, i64, ...) @ioctl(i32 noundef %78, i64 noundef 2148575745, ptr noundef %15) #11
  br label %80

80:                                               ; preds = %74, %64
  br label %86

81:                                               ; preds = %2
  %82 = load ptr, ptr %10, align 8
  %83 = load i64, ptr %11, align 8
  %84 = load i32, ptr %9, align 4
  %85 = call i32 @mprotect(ptr noundef %82, i64 noundef %83, i32 noundef %84) #11
  br label %86

86:                                               ; preds = %81, %80
  ret void
}

; Function Attrs: nounwind uwtable
define internal void @phpdbg_activate_watchpoint(ptr noundef %0) #0 {
  %2 = alloca ptr, align 8
  store ptr %0, ptr %2, align 8
  %3 = load ptr, ptr %2, align 8
  call void @phpdbg_change_watchpoint_access(ptr noundef %3, i32 noundef 1)
  ret void
}

; Function Attrs: nounwind uwtable
define internal void @phpdbg_store_watchpoint_btree(ptr noundef %0) #0 {
  %2 = alloca ptr, align 8
  store ptr %0, ptr %2, align 8
  %3 = load ptr, ptr %2, align 8
  %4 = getelementptr inbounds %struct._phpdbg_watchpoint_t, ptr %3, i32 0, i32 0
  %5 = load ptr, ptr %4, align 8
  %6 = ptrtoint ptr %5 to i64
  %7 = load ptr, ptr %2, align 8
  %8 = call i32 @phpdbg_btree_insert_or_update(ptr noundef getelementptr inbounds (%struct._zend_phpdbg_globals, ptr @phpdbg_globals, i32 0, i32 13), i64 noundef %6, ptr noundef %7, i32 noundef 1)
  ret void
}

; Function Attrs: nounwind uwtable
define hidden void @phpdbg_set_addr_watchpoint(ptr noundef %0, i64 noundef %1, ptr noundef %2) #0 {
  %4 = alloca ptr, align 8
  %5 = alloca i64, align 8
  %6 = alloca ptr, align 8
  store ptr %0, ptr %4, align 8
  store i64 %1, ptr %5, align 8
  store ptr %2, ptr %6, align 8
  %7 = load ptr, ptr %4, align 8
  %8 = load ptr, ptr %6, align 8
  %9 = getelementptr inbounds %struct._phpdbg_watchpoint_t, ptr %8, i32 0, i32 0
  store ptr %7, ptr %9, align 8
  %10 = load i64, ptr %5, align 8
  %11 = load ptr, ptr %6, align 8
  %12 = getelementptr inbounds %struct._phpdbg_watchpoint_t, ptr %11, i32 0, i32 1
  store i64 %10, ptr %12, align 8
  %13 = load ptr, ptr %6, align 8
  %14 = getelementptr inbounds %struct._phpdbg_watchpoint_t, ptr %13, i32 0, i32 3
  store ptr null, ptr %14, align 8
  %15 = load ptr, ptr %6, align 8
  %16 = getelementptr inbounds %struct._phpdbg_watchpoint_t, ptr %15, i32 0, i32 5
  store ptr null, ptr %16, align 8
  %17 = load ptr, ptr %6, align 8
  %18 = getelementptr inbounds %struct._phpdbg_watchpoint_t, ptr %17, i32 0, i32 4
  call void @_zend_hash_init(ptr noundef %18, i32 noundef 8, ptr noundef null, i1 noundef zeroext false)
  ret void
}

; Function Attrs: nounwind uwtable
define hidden void @phpdbg_watch_parent_ht(ptr noundef %0) #0 {
  %2 = alloca ptr, align 8
  %3 = alloca ptr, align 8
  %4 = alloca ptr, align 8
  %5 = alloca ptr, align 8
  %6 = alloca %struct._zval_struct, align 8
  %7 = alloca ptr, align 8
  %8 = alloca ptr, align 8
  %9 = alloca ptr, align 8
  %10 = alloca ptr, align 8
  store ptr %0, ptr %8, align 8
  %11 = load ptr, ptr %8, align 8
  %12 = getelementptr inbounds %struct._phpdbg_watch_element, ptr %11, i32 0, i32 1
  %13 = load ptr, ptr %12, align 8
  %14 = getelementptr inbounds %struct._phpdbg_watchpoint_t, ptr %13, i32 0, i32 2
  %15 = load i32, ptr %14, align 8
  %16 = icmp eq i32 %15, 5
  br i1 %16, label %17, label %101

17:                                               ; preds = %1
  %18 = load ptr, ptr %8, align 8
  %19 = getelementptr inbounds %struct._phpdbg_watch_element, ptr %18, i32 0, i32 6
  %20 = load ptr, ptr %19, align 8
  %21 = icmp ne ptr %20, null
  call void @llvm.assume(i1 %21)
  %22 = load ptr, ptr %8, align 8
  %23 = getelementptr inbounds %struct._phpdbg_watch_element, ptr %22, i32 0, i32 6
  %24 = load ptr, ptr %23, align 8
  %25 = ptrtoint ptr %24 to i64
  %26 = call ptr @phpdbg_btree_find(ptr noundef getelementptr inbounds (%struct._zend_phpdbg_globals, ptr @phpdbg_globals, i32 0, i32 14), i64 noundef %25)
  store ptr %26, ptr %9, align 8
  %27 = icmp ne ptr %26, null
  br i1 %27, label %75, label %28

28:                                               ; preds = %17
  %29 = call noalias ptr @_emalloc_224()
  store ptr %29, ptr %10, align 8
  %30 = load ptr, ptr %8, align 8
  %31 = getelementptr inbounds %struct._phpdbg_watch_element, ptr %30, i32 0, i32 6
  %32 = load ptr, ptr %31, align 8
  %33 = load ptr, ptr %10, align 8
  %34 = getelementptr inbounds %struct.phpdbg_watch_ht_info, ptr %33, i32 0, i32 1
  store ptr %32, ptr %34, align 8
  %35 = load ptr, ptr %10, align 8
  %36 = getelementptr inbounds %struct.phpdbg_watch_ht_info, ptr %35, i32 0, i32 2
  call void @_zend_hash_init(ptr noundef %36, i32 noundef 0, ptr noundef @zval_ptr_dtor, i1 noundef zeroext false)
  %37 = load ptr, ptr %10, align 8
  %38 = getelementptr inbounds %struct.phpdbg_watch_ht_info, ptr %37, i32 0, i32 1
  %39 = load ptr, ptr %38, align 8
  %40 = ptrtoint ptr %39 to i64
  %41 = load ptr, ptr %10, align 8
  %42 = call i32 @phpdbg_btree_insert_or_update(ptr noundef getelementptr inbounds (%struct._zend_phpdbg_globals, ptr @phpdbg_globals, i32 0, i32 14), i64 noundef %40, ptr noundef %41, i32 noundef 1)
  %43 = load ptr, ptr %10, align 8
  %44 = getelementptr inbounds %struct.phpdbg_watch_ht_info, ptr %43, i32 0, i32 1
  %45 = load ptr, ptr %44, align 8
  %46 = getelementptr inbounds %struct._zend_array, ptr %45, i32 0, i32 3
  %47 = load ptr, ptr %46, align 8
  %48 = load ptr, ptr %10, align 8
  %49 = getelementptr inbounds %struct.phpdbg_watch_ht_info, ptr %48, i32 0, i32 1
  %50 = load ptr, ptr %49, align 8
  %51 = getelementptr inbounds %struct._zend_array, ptr %50, i32 0, i32 2
  %52 = load i32, ptr %51, align 4
  %53 = sub i32 0, %52
  %54 = zext i32 %53 to i64
  %55 = mul i64 %54, 4
  %56 = sub i64 0, %55
  %57 = getelementptr inbounds i8, ptr %47, i64 %56
  %58 = load ptr, ptr %10, align 8
  %59 = getelementptr inbounds %struct.phpdbg_watch_ht_info, ptr %58, i32 0, i32 1
  %60 = load ptr, ptr %59, align 8
  %61 = getelementptr inbounds %struct._zend_array, ptr %60, i32 0, i32 2
  %62 = load i32, ptr %61, align 4
  %63 = sub i32 0, %62
  %64 = zext i32 %63 to i64
  %65 = mul i64 %64, 4
  %66 = load ptr, ptr %10, align 8
  %67 = getelementptr inbounds %struct.phpdbg_watch_ht_info, ptr %66, i32 0, i32 0
  call void @phpdbg_set_addr_watchpoint(ptr noundef %57, i64 noundef %65, ptr noundef %67)
  %68 = load ptr, ptr %10, align 8
  %69 = getelementptr inbounds %struct.phpdbg_watch_ht_info, ptr %68, i32 0, i32 0
  %70 = getelementptr inbounds %struct._phpdbg_watchpoint_t, ptr %69, i32 0, i32 2
  store i32 4, ptr %70, align 8
  %71 = load ptr, ptr %10, align 8
  %72 = getelementptr inbounds %struct.phpdbg_watch_ht_info, ptr %71, i32 0, i32 0
  call void @phpdbg_store_watchpoint_btree(ptr noundef %72)
  %73 = load ptr, ptr %10, align 8
  %74 = getelementptr inbounds %struct.phpdbg_watch_ht_info, ptr %73, i32 0, i32 0
  call void @phpdbg_activate_watchpoint(ptr noundef %74)
  br label %79

75:                                               ; preds = %17
  %76 = load ptr, ptr %9, align 8
  %77 = getelementptr inbounds %struct.phpdbg_btree_result, ptr %76, i32 0, i32 1
  %78 = load ptr, ptr %77, align 8
  store ptr %78, ptr %10, align 8
  br label %79

79:                                               ; preds = %75, %28
  %80 = load ptr, ptr %10, align 8
  %81 = getelementptr inbounds %struct.phpdbg_watch_ht_info, ptr %80, i32 0, i32 2
  %82 = load ptr, ptr %8, align 8
  %83 = getelementptr inbounds %struct._phpdbg_watch_element, ptr %82, i32 0, i32 7
  %84 = load ptr, ptr %83, align 8
  %85 = load ptr, ptr %8, align 8
  store ptr %81, ptr %3, align 8
  store ptr %84, ptr %4, align 8
  store ptr %85, ptr %5, align 8
  %86 = load ptr, ptr %5, align 8
  store ptr %86, ptr %6, align 8
  %87 = getelementptr inbounds %struct._zval_struct, ptr %6, i32 0, i32 1
  store i32 13, ptr %87, align 8
  %88 = load ptr, ptr %3, align 8
  %89 = load ptr, ptr %4, align 8
  %90 = call ptr @zend_hash_add(ptr noundef %88, ptr noundef %89, ptr noundef %6) #11
  store ptr %90, ptr %7, align 8
  %91 = load ptr, ptr %7, align 8
  %92 = icmp ne ptr %91, null
  br i1 %92, label %93, label %99

93:                                               ; preds = %79
  %94 = load ptr, ptr %7, align 8
  %95 = load ptr, ptr %94, align 8
  %96 = icmp ne ptr %95, null
  call void @llvm.assume(i1 %96)
  %97 = load ptr, ptr %7, align 8
  %98 = load ptr, ptr %97, align 8
  store ptr %98, ptr %2, align 8
  br label %100

99:                                               ; preds = %79
  store ptr null, ptr %2, align 8
  br label %100

100:                                              ; preds = %99, %93
  br label %101

101:                                              ; preds = %100, %1
  ret void
}