; Function Attrs: nounwind uwtable
define hidden void @phpdbg_watch_parent_ht(ptr noundef %0) local_unnamed_addr #0 {
  %2 = alloca %struct.uffdio_register, align 8
  %3 = alloca %struct.uffdio_writeprotect, align 8
  %4 = alloca %struct._zval_struct, align 8
  %5 = getelementptr inbounds i8, ptr %0, i64 8
  %6 = load ptr, ptr %5, align 8
  %7 = getelementptr inbounds i8, ptr %6, i64 16
  %8 = load i32, ptr %7, align 8
  %9 = icmp eq i32 %8, 5
  br i1 %9, label %10, label %73

10:                                               ; preds = %1
  %11 = getelementptr inbounds i8, ptr %0, i64 96
  %12 = load ptr, ptr %11, align 8, !nonnull !4, !noundef !4
  %13 = ptrtoint ptr %12 to i64
  %14 = tail call ptr @phpdbg_btree_find(ptr noundef nonnull getelementptr inbounds (%struct._zend_phpdbg_globals, ptr @phpdbg_globals, i64 0, i32 14), i64 noundef %13) #17
  %.not = icmp eq ptr %14, null
  br i1 %.not, label %15, label %61

15:                                               ; preds = %10
  %16 = tail call noalias ptr @_emalloc_224() #17
  %17 = load ptr, ptr %11, align 8
  %18 = getelementptr inbounds i8, ptr %16, i64 152
  store ptr %17, ptr %18, align 8
  %19 = getelementptr inbounds i8, ptr %16, i64 160
  tail call void @_zend_hash_init(ptr noundef nonnull %19, i32 noundef 0, ptr noundef nonnull @zval_ptr_dtor, i1 noundef zeroext false) #17
  %20 = load ptr, ptr %18, align 8
  %21 = ptrtoint ptr %20 to i64
  %22 = tail call i32 @phpdbg_btree_insert_or_update(ptr noundef nonnull getelementptr inbounds (%struct._zend_phpdbg_globals, ptr @phpdbg_globals, i64 0, i32 14), i64 noundef %21, ptr noundef %16, i32 noundef 1) #17
  %23 = load ptr, ptr %18, align 8
  %24 = getelementptr inbounds i8, ptr %23, i64 16
  %25 = load ptr, ptr %24, align 8
  %26 = getelementptr inbounds i8, ptr %23, i64 12
  %27 = load i32, ptr %26, align 4
  %28 = sub i32 0, %27
  %29 = zext i32 %28 to i64
  %30 = shl nuw nsw i64 %29, 2
  %31 = sub nsw i64 0, %30
  %32 = getelementptr inbounds i8, ptr %25, i64 %31
  store ptr %32, ptr %16, align 8
  %33 = getelementptr inbounds i8, ptr %16, i64 8
  store i64 %30, ptr %33, align 8
  %34 = getelementptr inbounds i8, ptr %16, i64 24
  store ptr null, ptr %34, align 8
  %35 = getelementptr inbounds i8, ptr %16, i64 88
  store ptr null, ptr %35, align 8
  %36 = getelementptr inbounds i8, ptr %16, i64 32
  tail call void @_zend_hash_init(ptr noundef nonnull %36, i32 noundef 8, ptr noundef null, i1 noundef zeroext false) #17
  %37 = getelementptr inbounds i8, ptr %16, i64 16
  store i32 4, ptr %37, align 8
  %38 = load ptr, ptr %16, align 8
  %39 = ptrtoint ptr %38 to i64
  %40 = tail call i32 @phpdbg_btree_insert_or_update(ptr noundef nonnull getelementptr inbounds (%struct._zend_phpdbg_globals, ptr @phpdbg_globals, i64 0, i32 13), i64 noundef %39, ptr noundef nonnull %16, i32 noundef 1) #17
  %.val = load ptr, ptr %16, align 8
  %.val28 = load i64, ptr %33, align 8
  call void @llvm.lifetime.start.p0(i64 32, ptr nonnull %2)
  call void @llvm.lifetime.start.p0(i64 24, ptr nonnull %3)
  %41 = ptrtoint ptr %.val to i64
  %42 = load i64, ptr @phpdbg_pagesize, align 8
  %43 = sub i64 0, %42
  %44 = and i64 %43, %41
  %45 = add i64 %.val28, -1
  %46 = add i64 %45, %41
  %47 = and i64 %46, %43
  %48 = sub i64 %47, %44
  %49 = add i64 %48, %42
  %50 = load i32, ptr getelementptr inbounds (%struct._zend_phpdbg_globals, ptr @phpdbg_globals, i64 0, i32 11), align 8
  %.not.i.i = icmp eq i32 %50, 0
  br i1 %.not.i.i, label %58, label %51

51:                                               ; preds = %15
  store i64 %44, ptr %2, align 8
  %.sroa.4.0..sroa_idx.i.i = getelementptr inbounds i8, ptr %2, i64 8
  store i64 %49, ptr %.sroa.4.0..sroa_idx.i.i, align 8
  %52 = getelementptr inbounds i8, ptr %2, i64 16
  store i64 2, ptr %52, align 8
  %53 = getelementptr inbounds i8, ptr %2, i64 24
  store i64 0, ptr %53, align 8
  store i64 %44, ptr %3, align 8
  %.sroa.4.0..sroa_idx3.i.i = getelementptr inbounds i8, ptr %3, i64 8
  store i64 %49, ptr %.sroa.4.0..sroa_idx3.i.i, align 8
  %54 = getelementptr inbounds i8, ptr %3, i64 16
  store i64 1, ptr %54, align 8
  %55 = call i32 (i32, i64, ...) @ioctl(i32 noundef %50, i64 noundef 3223366144, ptr noundef nonnull %2) #17
  %56 = load i32, ptr getelementptr inbounds (%struct._zend_phpdbg_globals, ptr @phpdbg_globals, i64 0, i32 11), align 8
  %57 = call i32 (i32, i64, ...) @ioctl(i32 noundef %56, i64 noundef 3222841862, ptr noundef nonnull %3) #17
  br label %phpdbg_activate_watchpoint.exit

58:                                               ; preds = %15
  %59 = inttoptr i64 %44 to ptr
  %60 = tail call i32 @mprotect(ptr noundef %59, i64 noundef %49, i32 noundef 1) #17
  br label %phpdbg_activate_watchpoint.exit

phpdbg_activate_watchpoint.exit:                  ; preds = %51, %58
  call void @llvm.lifetime.end.p0(i64 32, ptr nonnull %2)
  call void @llvm.lifetime.end.p0(i64 24, ptr nonnull %3)
  br label %64

61:                                               ; preds = %10
  %62 = getelementptr inbounds i8, ptr %14, i64 8
  %63 = load ptr, ptr %62, align 8
  br label %64

64:                                               ; preds = %61, %phpdbg_activate_watchpoint.exit
  %.0 = phi ptr [ %63, %61 ], [ %16, %phpdbg_activate_watchpoint.exit ]
  %65 = getelementptr inbounds i8, ptr %.0, i64 160
  %66 = getelementptr inbounds i8, ptr %0, i64 104
  %67 = load ptr, ptr %66, align 8
  store ptr %0, ptr %4, align 8
  %68 = getelementptr inbounds i8, ptr %4, i64 8
  store i32 13, ptr %68, align 8
  %69 = call ptr @zend_hash_add(ptr noundef nonnull %65, ptr noundef %67, ptr noundef nonnull %4) #17
  %.not27 = icmp eq ptr %69, null
  br i1 %.not27, label %73, label %70

70:                                               ; preds = %64
  %71 = load ptr, ptr %69, align 8
  %72 = icmp ne ptr %71, null
  call void @llvm.assume(i1 %72)
  br label %73

73:                                               ; preds = %64, %70, %1
  ret void
}